target datalayout = "e-m:e-p270:32:32-p271:32:32-p272:64:64-i64:64-i128:128-f80:128-n8:16:32:64-S128"
target triple = "x86_64-pc-linux-gnu"

@bio_err = external global ptr, align 8
@.str.19 = private unnamed_addr constant [20 x i8] c"No test type given\0A\00", align 1
@.str.20 = private unnamed_addr constant [33 x i8] c"Only one test type may be given\0A\00", align 1
@pubkey_filename = internal global ptr null, align 8
@eecert_filename = internal global ptr null, align 8
@cacert_filename = internal global ptr null, align 8
@.str.21 = private unnamed_addr constant [24 x i8] c"Missing -spki argument\0A\00", align 1
@.str.22 = private unnamed_addr constant [27 x i8] c"Missing -x509 argument(s)\0A\00", align 1
@.str.23 = private unnamed_addr constant [16 x i8] c"test_x509_files\00", align 1
@.str.24 = private unnamed_addr constant [15 x i8] c"test_spki_file\00", align 1

; Function Attrs: nounwind uwtable
define dso_local i32 @setup_tests() #0 {
  %1 = alloca i32, align 4
  %2 = alloca i32, align 4
  %3 = alloca i32, align 4
  %4 = alloca i32, align 4
  %5 = alloca i32, align 4
  %6 = alloca i32, align 4
  %7 = alloca i32, align 4
  call void @llvm.lifetime.start.p0(i64 4, ptr %2) #5
  call void @llvm.lifetime.start.p0(i64 4, ptr %3) #5
  call void @llvm.lifetime.start.p0(i64 4, ptr %4) #5
  store i32 0, ptr %4, align 4, !tbaa !4
  call void @llvm.lifetime.start.p0(i64 4, ptr %5) #5
  store i32 0, ptr %5, align 4, !tbaa !4
  call void @llvm.lifetime.start.p0(i64 4, ptr %6) #5
  store i32 0, ptr %6, align 4, !tbaa !4
  br label %8

8:                                                ; preds = %18, %0
  %9 = call i32 @opt_next()
  store i32 %9, ptr %2, align 4, !tbaa !4
  %10 = icmp ne i32 %9, 0
  br i1 %10, label %11, label %19

11:                                               ; preds = %8
  %12 = load i32, ptr %2, align 4, !tbaa !4
  switch i32 %12, label %16 [
    i32 1, label %13
    i32 2, label %14
    i32 500, label %15
    i32 501, label %15
    i32 502, label %15
    i32 503, label %15
    i32 504, label %15
    i32 505, label %15
    i32 -1, label %17
  ]

13:                                               ; preds = %11
  store i32 1, ptr %4, align 4, !tbaa !4
  br label %18

14:                                               ; preds = %11
  store i32 1, ptr %5, align 4, !tbaa !4
  br label %18

15:                                               ; preds = %11, %11, %11, %11, %11, %11
  br label %18

16:                                               ; preds = %11
  br label %17

17:                                               ; preds = %11, %16
  store i32 0, ptr %1, align 4
  store i32 1, ptr %7, align 4
  br label %90

18:                                               ; preds = %15, %14, %13
  br label %8, !llvm.loop !8

19:                                               ; preds = %8
  %20 = load i32, ptr %4, align 4, !tbaa !4
  %21 = load i32, ptr %5, align 4, !tbaa !4
  %22 = add nsw i32 %20, %21
  store i32 %22, ptr %6, align 4, !tbaa !4
  %23 = load i32, ptr %6, align 4, !tbaa !4
  %24 = icmp slt i32 %23, 1
  br i1 %24, label %25, label %28

25:                                               ; preds = %19
  %26 = load ptr, ptr @bio_err, align 8, !tbaa !10
  %27 = call i32 (ptr, ptr, ...) @BIO_printf(ptr noundef %26, ptr noundef @.str.19)
  br label %35

28:                                               ; preds = %19
  %29 = load i32, ptr %6, align 4, !tbaa !4
  %30 = icmp sgt i32 %29, 1
  br i1 %30, label %31, label %34

31:                                               ; preds = %28
  %32 = load ptr, ptr @bio_err, align 8, !tbaa !10
  %33 = call i32 (ptr, ptr, ...) @BIO_printf(ptr noundef %32, ptr noundef @.str.20)
  br label %34

34:                                               ; preds = %31, %28
  br label %35

35:                                               ; preds = %34, %25
  %36 = load i32, ptr %6, align 4, !tbaa !4
  %37 = icmp ne i32 %36, 1
  br i1 %37, label %38, label %39

38:                                               ; preds = %35
  store i32 0, ptr %1, align 4
  store i32 1, ptr %7, align 4
  br label %90

39:                                               ; preds = %35
  %40 = call i64 @test_get_argument_count()
  %41 = trunc i64 %40 to i32
  store i32 %41, ptr %3, align 4, !tbaa !4
  %42 = load i32, ptr %5, align 4, !tbaa !4
  %43 = icmp ne i32 %42, 0
  br i1 %43, label %44, label %49

44:                                               ; preds = %39
  %45 = load i32, ptr %3, align 4, !tbaa !4
  %46 = icmp eq i32 %45, 1
  br i1 %46, label %47, label %49

47:                                               ; preds = %44
  %48 = call ptr @test_get_argument(i64 noundef 0)
  store ptr %48, ptr @pubkey_filename, align 8, !tbaa !13
  br label %59

49:                                               ; preds = %44, %39
  %50 = load i32, ptr %4, align 4, !tbaa !4
  %51 = icmp ne i32 %50, 0
  br i1 %51, label %52, label %58

52:                                               ; preds = %49
  %53 = load i32, ptr %3, align 4, !tbaa !4
  %54 = icmp eq i32 %53, 2
  br i1 %54, label %55, label %58

55:                                               ; preds = %52
  %56 = call ptr @test_get_argument(i64 noundef 0)
  store ptr %56, ptr @eecert_filename, align 8, !tbaa !13
  %57 = call ptr @test_get_argument(i64 noundef 1)
  store ptr %57, ptr @cacert_filename, align 8, !tbaa !13
  br label %58

58:                                               ; preds = %55, %52, %49
  br label %59

59:                                               ; preds = %58, %47
  %60 = load i32, ptr %5, align 4, !tbaa !4
  %61 = icmp ne i32 %60, 0
  br i1 %61, label %62, label %68

62:                                               ; preds = %59
  %63 = load ptr, ptr @pubkey_filename, align 8, !tbaa !13
  %64 = icmp eq ptr %63, null
  br i1 %64, label %65, label %68

65:                                               ; preds = %62
  %66 = load ptr, ptr @bio_err, align 8, !tbaa !10
  %67 = call i32 (ptr, ptr, ...) @BIO_printf(ptr noundef %66, ptr noundef @.str.21)
  store i32 0, ptr %1, align 4
  store i32 1, ptr %7, align 4
  br label %90

68:                                               ; preds = %62, %59
  %69 = load i32, ptr %4, align 4, !tbaa !4
  %70 = icmp ne i32 %69, 0
  br i1 %70, label %71, label %80

71:                                               ; preds = %68
  %72 = load ptr, ptr @eecert_filename, align 8, !tbaa !13
  %73 = icmp eq ptr %72, null
  br i1 %73, label %77, label %74

74:                                               ; preds = %71
  %75 = load ptr, ptr @cacert_filename, align 8, !tbaa !13
  %76 = icmp eq ptr %75, null
  br i1 %76, label %77, label %80

77:                                               ; preds = %74, %71
  %78 = load ptr, ptr @bio_err, align 8, !tbaa !10
  %79 = call i32 (ptr, ptr, ...) @BIO_printf(ptr noundef %78, ptr noundef @.str.22)
  store i32 0, ptr %1, align 4
  store i32 1, ptr %7, align 4
  br label %90

80:                                               ; preds = %74, %68
  br label %81

81:                                               ; preds = %80
  %82 = load i32, ptr %4, align 4, !tbaa !4
  %83 = icmp ne i32 %82, 0
  br i1 %83, label %84, label %85

84:                                               ; preds = %81
  call void @add_test(ptr noundef @.str.23, ptr noundef @test_x509_files)
  br label %85

85:                                               ; preds = %84, %81
  %86 = load i32, ptr %5, align 4, !tbaa !4
  %87 = icmp ne i32 %86, 0
  br i1 %87, label %88, label %89

88:                                               ; preds = %85
  call void @add_test(ptr noundef @.str.24, ptr noundef @test_spki_file)
  br label %89

89:                                               ; preds = %88, %85
  store i32 1, ptr %1, align 4
  store i32 1, ptr %7, align 4
  br label %90

90:                                               ; preds = %89, %77, %65, %38, %17
  call void @llvm.lifetime.end.p0(i64 4, ptr %6) #5
  call void @llvm.lifetime.end.p0(i64 4, ptr %5) #5
  call void @llvm.lifetime.end.p0(i64 4, ptr %4) #5
  call void @llvm.lifetime.end.p0(i64 4, ptr %3) #5
  call void @llvm.lifetime.end.p0(i64 4, ptr %2) #5
  %91 = load i32, ptr %1, align 4
  ret i32 %91
}