; Function Attrs: nounwind uwtable
define dso_local range(i32 0, 2) i32 @setup_tests() local_unnamed_addr #1 {
  br label %1

1:                                                ; preds = %.backedge, %0
  %.022 = phi i32 [ 0, %0 ], [ %.022.be, %.backedge ]
  %.0 = phi i32 [ 0, %0 ], [ %.0.be, %.backedge ]
  %2 = tail call i32 @opt_next() #6
  switch i32 %2, label %.loopexit [
    i32 0, label %5
    i32 1, label %3
    i32 2, label %4
    i32 500, label %.backedge
    i32 501, label %.backedge
    i32 502, label %.backedge
    i32 503, label %.backedge
    i32 504, label %.backedge
    i32 505, label %.backedge
  ]

.backedge:                                        ; preds = %1, %1, %1, %1, %1, %1, %4, %3
  %.022.be = phi i32 [ %.022, %4 ], [ 1, %3 ], [ %.022, %1 ], [ %.022, %1 ], [ %.022, %1 ], [ %.022, %1 ], [ %.022, %1 ], [ %.022, %1 ]
  %.0.be = phi i32 [ 1, %4 ], [ %.0, %3 ], [ %.0, %1 ], [ %.0, %1 ], [ %.0, %1 ], [ %.0, %1 ], [ %.0, %1 ], [ %.0, %1 ]
  br label %1, !llvm.loop !4

3:                                                ; preds = %1
  br label %.backedge

4:                                                ; preds = %1
  br label %.backedge

5:                                                ; preds = %1
  %6 = add nuw nsw i32 %.0, %.022
  switch i32 %6, label %10 [
    i32 0, label %7
    i32 1, label %13
  ]

7:                                                ; preds = %5
  %8 = load ptr, ptr @bio_err, align 8, !tbaa !6
  %9 = tail call i32 (ptr, ptr, ...) @BIO_printf(ptr noundef %8, ptr noundef nonnull @.str.19) #6
  br label %.loopexit

10:                                               ; preds = %5
  %11 = load ptr, ptr @bio_err, align 8, !tbaa !6
  %12 = tail call i32 (ptr, ptr, ...) @BIO_printf(ptr noundef %11, ptr noundef nonnull @.str.20) #6
  br label %.loopexit

13:                                               ; preds = %5
  %14 = tail call i64 @test_get_argument_count() #6
  %15 = trunc i64 %14 to i32
  %16 = icmp ne i32 %.0, 0
  %17 = icmp eq i32 %15, 1
  %or.cond = select i1 %16, i1 %17, i1 false
  br i1 %or.cond, label %.sink.split, label %18

18:                                               ; preds = %13
  %19 = icmp ne i32 %.022, 0
  %20 = icmp eq i32 %15, 2
  %or.cond3 = select i1 %19, i1 %20, i1 false
  br i1 %or.cond3, label %21, label %24

21:                                               ; preds = %18
  %22 = tail call ptr @test_get_argument(i64 noundef 0) #6
  store ptr %22, ptr @eecert_filename, align 8, !tbaa !11
  br label %.sink.split

.sink.split:                                      ; preds = %13, %21
  %.sink36 = phi i64 [ 1, %21 ], [ 0, %13 ]
  %cacert_filename.sink = phi ptr [ @cacert_filename, %21 ], [ @pubkey_filename, %13 ]
  %23 = tail call ptr @test_get_argument(i64 noundef %.sink36) #6
  store ptr %23, ptr %cacert_filename.sink, align 8, !tbaa !11
  br label %24

24:                                               ; preds = %.sink.split, %18
  %25 = load ptr, ptr @pubkey_filename, align 8
  %26 = icmp eq ptr %25, null
  %or.cond5 = select i1 %16, i1 %26, i1 false
  br i1 %or.cond5, label %27, label %30

27:                                               ; preds = %24
  %28 = load ptr, ptr @bio_err, align 8, !tbaa !6
  %29 = tail call i32 (ptr, ptr, ...) @BIO_printf(ptr noundef %28, ptr noundef nonnull @.str.21) #6
  br label %.loopexit

30:                                               ; preds = %24
  %.not29 = icmp eq i32 %.022, 0
  br i1 %.not29, label %.critedge, label %31

31:                                               ; preds = %30
  %32 = load ptr, ptr @eecert_filename, align 8, !tbaa !11
  %33 = icmp eq ptr %32, null
  %34 = load ptr, ptr @cacert_filename, align 8
  %35 = icmp eq ptr %34, null
  %or.cond7 = select i1 %33, i1 true, i1 %35
  br i1 %or.cond7, label %36, label %39

36:                                               ; preds = %31
  %37 = load ptr, ptr @bio_err, align 8, !tbaa !6
  %38 = tail call i32 (ptr, ptr, ...) @BIO_printf(ptr noundef %37, ptr noundef nonnull @.str.22) #6
  br label %.loopexit

39:                                               ; preds = %31
  tail call void @add_test(ptr noundef nonnull @.str.23, ptr noundef nonnull @test_x509_files) #6
  br label %.critedge

.critedge:                                        ; preds = %30, %39
  br i1 %16, label %40, label %.loopexit

40:                                               ; preds = %.critedge
  tail call void @add_test(ptr noundef nonnull @.str.24, ptr noundef nonnull @test_spki_file) #6
  br label %.loopexit

.loopexit:                                        ; preds = %1, %7, %10, %.critedge, %40, %36, %27
  %.024 = phi i32 [ 0, %27 ], [ 0, %36 ], [ 1, %40 ], [ 1, %.critedge ], [ 0, %10 ], [ 0, %7 ], [ 0, %1 ]
  ret i32 %.024
}